target datalayout = "e-m:e-p270:32:32-p271:32:32-p272:64:64-i64:64-i128:128-f80:128-n8:16:32:64-S128"
target triple = "x86_64-pc-linux-gnu"

; Function Attrs: alwaysinline nounwind willreturn memory(none) uwtable
define internal i32 @av_clip_c(i32 noundef %0, i32 noundef %1, i32 noundef %2) #4 {
  %4 = alloca i32, align 4
  %5 = alloca i32, align 4
  %6 = alloca i32, align 4
  %7 = alloca i32, align 4
  store i32 %0, ptr %5, align 4, !tbaa !39
  store i32 %1, ptr %6, align 4, !tbaa !39
  store i32 %2, ptr %7, align 4, !tbaa !39
  %8 = load i32, ptr %5, align 4, !tbaa !39
  %9 = load i32, ptr %6, align 4, !tbaa !39
  %10 = icmp slt i32 %8, %9
  br i1 %10, label %11, label %13

11:                                               ; preds = %3
  %12 = load i32, ptr %6, align 4, !tbaa !39
  store i32 %12, ptr %4, align 4
  br label %21

13:                                               ; preds = %3
  %14 = load i32, ptr %5, align 4, !tbaa !39
  %15 = load i32, ptr %7, align 4, !tbaa !39
  %16 = icmp sgt i32 %14, %15
  br i1 %16, label %17, label %19

17:                                               ; preds = %13
  %18 = load i32, ptr %7, align 4, !tbaa !39
  store i32 %18, ptr %4, align 4
  br label %21

19:                                               ; preds = %13
  %20 = load i32, ptr %5, align 4, !tbaa !39
  store i32 %20, ptr %4, align 4
  br label %21

21:                                               ; preds = %19, %17, %11
  %22 = load i32, ptr %4, align 4
  ret i32 %22
}

; Function Attrs: nounwind uwtable
define internal void @v210_planar_pack_8_c(ptr noundef %0, ptr noundef %1, ptr noundef %2, ptr noundef %3, i64 noundef %4) #1 {
  %6 = alloca ptr, align 8
  %7 = alloca ptr, align 8
  %8 = alloca ptr, align 8
  %9 = alloca ptr, align 8
  %10 = alloca i64, align 8
  %11 = alloca i32, align 4
  %12 = alloca i32, align 4
  store ptr %0, ptr %6, align 8, !tbaa !43
  store ptr %1, ptr %7, align 8, !tbaa !43
  store ptr %2, ptr %8, align 8, !tbaa !43
  store ptr %3, ptr %9, align 8, !tbaa !43
  store i64 %4, ptr %10, align 8, !tbaa !59
  call void @llvm.lifetime.start.p0(i64 4, ptr %11) #7
  call void @llvm.lifetime.start.p0(i64 4, ptr %12) #7
  store i32 0, ptr %12, align 4, !tbaa !39
  br label %13

13:                                               ; preds = %245, %5
  %14 = load i32, ptr %12, align 4, !tbaa !39
  %15 = sext i32 %14 to i64
  %16 = load i64, ptr %10, align 8, !tbaa !59
  %17 = sub nsw i64 %16, 11
  %18 = icmp slt i64 %15, %17
  br i1 %18, label %20, label %19

19:                                               ; preds = %13
  call void @llvm.lifetime.end.p0(i64 4, ptr %12) #7
  br label %248

20:                                               ; preds = %13
  br label %21

21:                                               ; preds = %20
  %22 = load ptr, ptr %7, align 8, !tbaa !43
  %23 = getelementptr inbounds nuw i8, ptr %22, i32 1
  store ptr %23, ptr %7, align 8, !tbaa !43
  %24 = load i8, ptr %22, align 1, !tbaa !60
  %25 = zext i8 %24 to i32
  %26 = call i32 @av_clip_c(i32 noundef %25, i32 noundef 1, i32 noundef 254) #9
  %27 = shl i32 %26, 2
  store i32 %27, ptr %11, align 4, !tbaa !39
  %28 = load ptr, ptr %6, align 8, !tbaa !43
  %29 = getelementptr inbounds nuw i8, ptr %28, i32 1
  store ptr %29, ptr %6, align 8, !tbaa !43
  %30 = load i8, ptr %28, align 1, !tbaa !60
  %31 = zext i8 %30 to i32
  %32 = call i32 @av_clip_c(i32 noundef %31, i32 noundef 1, i32 noundef 254) #9
  %33 = shl i32 %32, 12
  %34 = load ptr, ptr %8, align 8, !tbaa !43
  %35 = getelementptr inbounds nuw i8, ptr %34, i32 1
  store ptr %35, ptr %8, align 8, !tbaa !43
  %36 = load i8, ptr %34, align 1, !tbaa !60
  %37 = zext i8 %36 to i32
  %38 = call i32 @av_clip_c(i32 noundef %37, i32 noundef 1, i32 noundef 254) #9
  %39 = shl i32 %38, 22
  %40 = or i32 %33, %39
  %41 = load i32, ptr %11, align 4, !tbaa !39
  %42 = or i32 %41, %40
  store i32 %42, ptr %11, align 4, !tbaa !39
  %43 = load i32, ptr %11, align 4, !tbaa !39
  %44 = load ptr, ptr %9, align 8, !tbaa !43
  store i32 %43, ptr %44, align 1, !tbaa !60
  %45 = load ptr, ptr %9, align 8, !tbaa !43
  %46 = getelementptr inbounds i8, ptr %45, i64 4
  store ptr %46, ptr %9, align 8, !tbaa !43
  br label %47

47:                                               ; preds = %21
  br label %48

48:                                               ; preds = %47
  br label %49

49:                                               ; preds = %48
  %50 = load ptr, ptr %6, align 8, !tbaa !43
  %51 = getelementptr inbounds nuw i8, ptr %50, i32 1
  store ptr %51, ptr %6, align 8, !tbaa !43
  %52 = load i8, ptr %50, align 1, !tbaa !60
  %53 = zext i8 %52 to i32
  %54 = call i32 @av_clip_c(i32 noundef %53, i32 noundef 1, i32 noundef 254) #9
  %55 = shl i32 %54, 2
  store i32 %55, ptr %11, align 4, !tbaa !39
  %56 = load ptr, ptr %7, align 8, !tbaa !43
  %57 = getelementptr inbounds nuw i8, ptr %56, i32 1
  store ptr %57, ptr %7, align 8, !tbaa !43
  %58 = load i8, ptr %56, align 1, !tbaa !60
  %59 = zext i8 %58 to i32
  %60 = call i32 @av_clip_c(i32 noundef %59, i32 noundef 1, i32 noundef 254) #9
  %61 = shl i32 %60, 12
  %62 = load ptr, ptr %6, align 8, !tbaa !43
  %63 = getelementptr inbounds nuw i8, ptr %62, i32 1
  store ptr %63, ptr %6, align 8, !tbaa !43
  %64 = load i8, ptr %62, align 1, !tbaa !60
  %65 = zext i8 %64 to i32
  %66 = call i32 @av_clip_c(i32 noundef %65, i32 noundef 1, i32 noundef 254) #9
  %67 = shl i32 %66, 22
  %68 = or i32 %61, %67
  %69 = load i32, ptr %11, align 4, !tbaa !39
  %70 = or i32 %69, %68
  store i32 %70, ptr %11, align 4, !tbaa !39
  %71 = load i32, ptr %11, align 4, !tbaa !39
  %72 = load ptr, ptr %9, align 8, !tbaa !43
  store i32 %71, ptr %72, align 1, !tbaa !60
  %73 = load ptr, ptr %9, align 8, !tbaa !43
  %74 = getelementptr inbounds i8, ptr %73, i64 4
  store ptr %74, ptr %9, align 8, !tbaa !43
  br label %75

75:                                               ; preds = %49
  br label %76

76:                                               ; preds = %75
  br label %77

77:                                               ; preds = %76
  %78 = load ptr, ptr %8, align 8, !tbaa !43
  %79 = getelementptr inbounds nuw i8, ptr %78, i32 1
  store ptr %79, ptr %8, align 8, !tbaa !43
  %80 = load i8, ptr %78, align 1, !tbaa !60
  %81 = zext i8 %80 to i32
  %82 = call i32 @av_clip_c(i32 noundef %81, i32 noundef 1, i32 noundef 254) #9
  %83 = shl i32 %82, 2
  store i32 %83, ptr %11, align 4, !tbaa !39
  %84 = load ptr, ptr %6, align 8, !tbaa !43
  %85 = getelementptr inbounds nuw i8, ptr %84, i32 1
  store ptr %85, ptr %6, align 8, !tbaa !43
  %86 = load i8, ptr %84, align 1, !tbaa !60
  %87 = zext i8 %86 to i32
  %88 = call i32 @av_clip_c(i32 noundef %87, i32 noundef 1, i32 noundef 254) #9
  %89 = shl i32 %88, 12
  %90 = load ptr, ptr %7, align 8, !tbaa !43
  %91 = getelementptr inbounds nuw i8, ptr %90, i32 1
  store ptr %91, ptr %7, align 8, !tbaa !43
  %92 = load i8, ptr %90, align 1, !tbaa !60
  %93 = zext i8 %92 to i32
  %94 = call i32 @av_clip_c(i32 noundef %93, i32 noundef 1, i32 noundef 254) #9
  %95 = shl i32 %94, 22
  %96 = or i32 %89, %95
  %97 = load i32, ptr %11, align 4, !tbaa !39
  %98 = or i32 %97, %96
  store i32 %98, ptr %11, align 4, !tbaa !39
  %99 = load i32, ptr %11, align 4, !tbaa !39
  %100 = load ptr, ptr %9, align 8, !tbaa !43
  store i32 %99, ptr %100, align 1, !tbaa !60
  %101 = load ptr, ptr %9, align 8, !tbaa !43
  %102 = getelementptr inbounds i8, ptr %101, i64 4
  store ptr %102, ptr %9, align 8, !tbaa !43
  br label %103

103:                                              ; preds = %77
  br label %104

104:                                              ; preds = %103
  br label %105

105:                                              ; preds = %104
  %106 = load ptr, ptr %6, align 8, !tbaa !43
  %107 = getelementptr inbounds nuw i8, ptr %106, i32 1
  store ptr %107, ptr %6, align 8, !tbaa !43
  %108 = load i8, ptr %106, align 1, !tbaa !60
  %109 = zext i8 %108 to i32
  %110 = call i32 @av_clip_c(i32 noundef %109, i32 noundef 1, i32 noundef 254) #9
  %111 = shl i32 %110, 2
  store i32 %111, ptr %11, align 4, !tbaa !39
  %112 = load ptr, ptr %8, align 8, !tbaa !43
  %113 = getelementptr inbounds nuw i8, ptr %112, i32 1
  store ptr %113, ptr %8, align 8, !tbaa !43
  %114 = load i8, ptr %112, align 1, !tbaa !60
  %115 = zext i8 %114 to i32
  %116 = call i32 @av_clip_c(i32 noundef %115, i32 noundef 1, i32 noundef 254) #9
  %117 = shl i32 %116, 12
  %118 = load ptr, ptr %6, align 8, !tbaa !43
  %119 = getelementptr inbounds nuw i8, ptr %118, i32 1
  store ptr %119, ptr %6, align 8, !tbaa !43
  %120 = load i8, ptr %118, align 1, !tbaa !60
  %121 = zext i8 %120 to i32
  %122 = call i32 @av_clip_c(i32 noundef %121, i32 noundef 1, i32 noundef 254) #9
  %123 = shl i32 %122, 22
  %124 = or i32 %117, %123
  %125 = load i32, ptr %11, align 4, !tbaa !39
  %126 = or i32 %125, %124
  store i32 %126, ptr %11, align 4, !tbaa !39
  %127 = load i32, ptr %11, align 4, !tbaa !39
  %128 = load ptr, ptr %9, align 8, !tbaa !43
  store i32 %127, ptr %128, align 1, !tbaa !60
  %129 = load ptr, ptr %9, align 8, !tbaa !43
  %130 = getelementptr inbounds i8, ptr %129, i64 4
  store ptr %130, ptr %9, align 8, !tbaa !43
  br label %131

131:                                              ; preds = %105
  br label %132

132:                                              ; preds = %131
  br label %133

133:                                              ; preds = %132
  %134 = load ptr, ptr %7, align 8, !tbaa !43
  %135 = getelementptr inbounds nuw i8, ptr %134, i32 1
  store ptr %135, ptr %7, align 8, !tbaa !43
  %136 = load i8, ptr %134, align 1, !tbaa !60
  %137 = zext i8 %136 to i32
  %138 = call i32 @av_clip_c(i32 noundef %137, i32 noundef 1, i32 noundef 254) #9
  %139 = shl i32 %138, 2
  store i32 %139, ptr %11, align 4, !tbaa !39
  %140 = load ptr, ptr %6, align 8, !tbaa !43
  %141 = getelementptr inbounds nuw i8, ptr %140, i32 1
  store ptr %141, ptr %6, align 8, !tbaa !43
  %142 = load i8, ptr %140, align 1, !tbaa !60
  %143 = zext i8 %142 to i32
  %144 = call i32 @av_clip_c(i32 noundef %143, i32 noundef 1, i32 noundef 254) #9
  %145 = shl i32 %144, 12
  %146 = load ptr, ptr %8, align 8, !tbaa !43
  %147 = getelementptr inbounds nuw i8, ptr %146, i32 1
  store ptr %147, ptr %8, align 8, !tbaa !43
  %148 = load i8, ptr %146, align 1, !tbaa !60
  %149 = zext i8 %148 to i32
  %150 = call i32 @av_clip_c(i32 noundef %149, i32 noundef 1, i32 noundef 254) #9
  %151 = shl i32 %150, 22
  %152 = or i32 %145, %151
  %153 = load i32, ptr %11, align 4, !tbaa !39
  %154 = or i32 %153, %152
  store i32 %154, ptr %11, align 4, !tbaa !39
  %155 = load i32, ptr %11, align 4, !tbaa !39
  %156 = load ptr, ptr %9, align 8, !tbaa !43
  store i32 %155, ptr %156, align 1, !tbaa !60
  %157 = load ptr, ptr %9, align 8, !tbaa !43
  %158 = getelementptr inbounds i8, ptr %157, i64 4
  store ptr %158, ptr %9, align 8, !tbaa !43
  br label %159

159:                                              ; preds = %133
  br label %160

160:                                              ; preds = %159
  br label %161

161:                                              ; preds = %160
  %162 = load ptr, ptr %6, align 8, !tbaa !43
  %163 = getelementptr inbounds nuw i8, ptr %162, i32 1
  store ptr %163, ptr %6, align 8, !tbaa !43
  %164 = load i8, ptr %162, align 1, !tbaa !60
  %165 = zext i8 %164 to i32
  %166 = call i32 @av_clip_c(i32 noundef %165, i32 noundef 1, i32 noundef 254) #9
  %167 = shl i32 %166, 2
  store i32 %167, ptr %11, align 4, !tbaa !39
  %168 = load ptr, ptr %7, align 8, !tbaa !43
  %169 = getelementptr inbounds nuw i8, ptr %168, i32 1
  store ptr %169, ptr %7, align 8, !tbaa !43
  %170 = load i8, ptr %168, align 1, !tbaa !60
  %171 = zext i8 %170 to i32
  %172 = call i32 @av_clip_c(i32 noundef %171, i32 noundef 1, i32 noundef 254) #9
  %173 = shl i32 %172, 12
  %174 = load ptr, ptr %6, align 8, !tbaa !43
  %175 = getelementptr inbounds nuw i8, ptr %174, i32 1
  store ptr %175, ptr %6, align 8, !tbaa !43
  %176 = load i8, ptr %174, align 1, !tbaa !60
  %177 = zext i8 %176 to i32
  %178 = call i32 @av_clip_c(i32 noundef %177, i32 noundef 1, i32 noundef 254) #9
  %179 = shl i32 %178, 22
  %180 = or i32 %173, %179
  %181 = load i32, ptr %11, align 4, !tbaa !39
  %182 = or i32 %181, %180
  store i32 %182, ptr %11, align 4, !tbaa !39
  %183 = load i32, ptr %11, align 4, !tbaa !39
  %184 = load ptr, ptr %9, align 8, !tbaa !43
  store i32 %183, ptr %184, align 1, !tbaa !60
  %185 = load ptr, ptr %9, align 8, !tbaa !43
  %186 = getelementptr inbounds i8, ptr %185, i64 4
  store ptr %186, ptr %9, align 8, !tbaa !43
  br label %187

187:                                              ; preds = %161
  br label %188

188:                                              ; preds = %187
  br label %189

189:                                              ; preds = %188
  %190 = load ptr, ptr %8, align 8, !tbaa !43
  %191 = getelementptr inbounds nuw i8, ptr %190, i32 1
  store ptr %191, ptr %8, align 8, !tbaa !43
  %192 = load i8, ptr %190, align 1, !tbaa !60
  %193 = zext i8 %192 to i32
  %194 = call i32 @av_clip_c(i32 noundef %193, i32 noundef 1, i32 noundef 254) #9
  %195 = shl i32 %194, 2
  store i32 %195, ptr %11, align 4, !tbaa !39
  %196 = load ptr, ptr %6, align 8, !tbaa !43
  %197 = getelementptr inbounds nuw i8, ptr %196, i32 1
  store ptr %197, ptr %6, align 8, !tbaa !43
  %198 = load i8, ptr %196, align 1, !tbaa !60
  %199 = zext i8 %198 to i32
  %200 = call i32 @av_clip_c(i32 noundef %199, i32 noundef 1, i32 noundef 254) #9
  %201 = shl i32 %200, 12
  %202 = load ptr, ptr %7, align 8, !tbaa !43
  %203 = getelementptr inbounds nuw i8, ptr %202, i32 1
  store ptr %203, ptr %7, align 8, !tbaa !43
  %204 = load i8, ptr %202, align 1, !tbaa !60
  %205 = zext i8 %204 to i32
  %206 = call i32 @av_clip_c(i32 noundef %205, i32 noundef 1, i32 noundef 254) #9
  %207 = shl i32 %206, 22
  %208 = or i32 %201, %207
  %209 = load i32, ptr %11, align 4, !tbaa !39
  %210 = or i32 %209, %208
  store i32 %210, ptr %11, align 4, !tbaa !39
  %211 = load i32, ptr %11, align 4, !tbaa !39
  %212 = load ptr, ptr %9, align 8, !tbaa !43
  store i32 %211, ptr %212, align 1, !tbaa !60
  %213 = load ptr, ptr %9, align 8, !tbaa !43
  %214 = getelementptr inbounds i8, ptr %213, i64 4
  store ptr %214, ptr %9, align 8, !tbaa !43
  br label %215

215:                                              ; preds = %189
  br label %216

216:                                              ; preds = %215
  br label %217

217:                                              ; preds = %216
  %218 = load ptr, ptr %6, align 8, !tbaa !43
  %219 = getelementptr inbounds nuw i8, ptr %218, i32 1
  store ptr %219, ptr %6, align 8, !tbaa !43
  %220 = load i8, ptr %218, align 1, !tbaa !60
  %221 = zext i8 %220 to i32
  %222 = call i32 @av_clip_c(i32 noundef %221, i32 noundef 1, i32 noundef 254) #9
  %223 = shl i32 %222, 2
  store i32 %223, ptr %11, align 4, !tbaa !39
  %224 = load ptr, ptr %8, align 8, !tbaa !43
  %225 = getelementptr inbounds nuw i8, ptr %224, i32 1
  store ptr %225, ptr %8, align 8, !tbaa !43
  %226 = load i8, ptr %224, align 1, !tbaa !60
  %227 = zext i8 %226 to i32
  %228 = call i32 @av_clip_c(i32 noundef %227, i32 noundef 1, i32 noundef 254) #9
  %229 = shl i32 %228, 12
  %230 = load ptr, ptr %6, align 8, !tbaa !43
  %231 = getelementptr inbounds nuw i8, ptr %230, i32 1
  store ptr %231, ptr %6, align 8, !tbaa !43
  %232 = load i8, ptr %230, align 1, !tbaa !60
  %233 = zext i8 %232 to i32
  %234 = call i32 @av_clip_c(i32 noundef %233, i32 noundef 1, i32 noundef 254) #9
  %235 = shl i32 %234, 22
  %236 = or i32 %229, %235
  %237 = load i32, ptr %11, align 4, !tbaa !39
  %238 = or i32 %237, %236
  store i32 %238, ptr %11, align 4, !tbaa !39
  %239 = load i32, ptr %11, align 4, !tbaa !39
  %240 = load ptr, ptr %9, align 8, !tbaa !43
  store i32 %239, ptr %240, align 1, !tbaa !60
  %241 = load ptr, ptr %9, align 8, !tbaa !43
  %242 = getelementptr inbounds i8, ptr %241, i64 4
  store ptr %242, ptr %9, align 8, !tbaa !43
  br label %243

243:                                              ; preds = %217
  br label %244

244:                                              ; preds = %243
  br label %245

245:                                              ; preds = %244
  %246 = load i32, ptr %12, align 4, !tbaa !39
  %247 = add nsw i32 %246, 12
  store i32 %247, ptr %12, align 4, !tbaa !39
  br label %13, !llvm.loop !61

248:                                              ; preds = %19
  call void @llvm.lifetime.end.p0(i64 4, ptr %11) #7
  ret void
}