; Function Attrs: nofree norecurse nosync nounwind memory(argmem: readwrite) uwtable
define internal void @v210_planar_pack_8_c(ptr noundef readonly captures(none) %0, ptr noundef readonly captures(none) %1, ptr noundef readonly captures(none) %2, ptr noundef writeonly captures(none) %3, i64 noundef %4) #3 {
  %6 = add nsw i64 %4, -11
  %7 = icmp sgt i64 %4, 11
  br i1 %7, label %.lr.ph, label %._crit_edge

._crit_edge:                                      ; preds = %.lr.ph, %5
  ret void

.lr.ph:                                           ; preds = %5, %.lr.ph
  %indvars.iv = phi i64 [ %indvars.iv.next, %.lr.ph ], [ 0, %5 ]
  %.058158 = phi ptr [ %121, %.lr.ph ], [ %0, %5 ]
  %.059157 = phi ptr [ %106, %.lr.ph ], [ %1, %5 ]
  %.060156 = phi ptr [ %127, %.lr.ph ], [ %3, %5 ]
  %.061155 = phi ptr [ %117, %.lr.ph ], [ %2, %5 ]
  %8 = getelementptr inbounds nuw i8, ptr %.059157, i64 1
  %9 = load i8, ptr %.059157, align 1, !tbaa !46
  %10 = icmp eq i8 %9, 0
  %narrow = tail call i8 @llvm.umin.i8(i8 %9, i8 -2)
  %narrow108 = select i1 %10, i8 1, i8 %narrow
  %.0.i = zext i8 %narrow108 to i32
  %11 = shl nuw nsw i32 %.0.i, 2
  %12 = getelementptr inbounds nuw i8, ptr %.058158, i64 1
  %13 = load i8, ptr %.058158, align 1, !tbaa !46
  %14 = icmp eq i8 %13, 0
  %narrow109 = tail call i8 @llvm.umin.i8(i8 %13, i8 -2)
  %narrow110 = select i1 %14, i8 1, i8 %narrow109
  %.0.i63 = zext i8 %narrow110 to i32
  %15 = shl nuw nsw i32 %.0.i63, 12
  %16 = getelementptr inbounds nuw i8, ptr %.061155, i64 1
  %17 = load i8, ptr %.061155, align 1, !tbaa !46
  %18 = icmp eq i8 %17, 0
  %narrow111 = tail call i8 @llvm.umin.i8(i8 %17, i8 -2)
  %narrow112 = select i1 %18, i8 1, i8 %narrow111
  %.0.i65 = zext i8 %narrow112 to i32
  %19 = shl nuw nsw i32 %.0.i65, 22
  %20 = or disjoint i32 %19, %15
  %21 = or disjoint i32 %20, %11
  store i32 %21, ptr %.060156, align 1, !tbaa !46
  %22 = getelementptr inbounds nuw i8, ptr %.060156, i64 4
  %23 = getelementptr inbounds nuw i8, ptr %.058158, i64 2
  %24 = load i8, ptr %12, align 1, !tbaa !46
  %25 = icmp eq i8 %24, 0
  %narrow113 = tail call i8 @llvm.umin.i8(i8 %24, i8 -2)
  %narrow114 = select i1 %25, i8 1, i8 %narrow113
  %.0.i67 = zext i8 %narrow114 to i32
  %26 = shl nuw nsw i32 %.0.i67, 2
  %27 = getelementptr inbounds nuw i8, ptr %.059157, i64 2
  %28 = load i8, ptr %8, align 1, !tbaa !46
  %29 = icmp eq i8 %28, 0
  %narrow115 = tail call i8 @llvm.umin.i8(i8 %28, i8 -2)
  %narrow116 = select i1 %29, i8 1, i8 %narrow115
  %.0.i69 = zext i8 %narrow116 to i32
  %30 = shl nuw nsw i32 %.0.i69, 12
  %31 = getelementptr inbounds nuw i8, ptr %.058158, i64 3
  %32 = load i8, ptr %23, align 1, !tbaa !46
  %33 = icmp eq i8 %32, 0
  %narrow117 = tail call i8 @llvm.umin.i8(i8 %32, i8 -2)
  %narrow118 = select i1 %33, i8 1, i8 %narrow117
  %.0.i71 = zext i8 %narrow118 to i32
  %34 = shl nuw nsw i32 %.0.i71, 22
  %35 = or disjoint i32 %34, %30
  %36 = or disjoint i32 %35, %26
  store i32 %36, ptr %22, align 1, !tbaa !46
  %37 = getelementptr inbounds nuw i8, ptr %.060156, i64 8
  %38 = getelementptr inbounds nuw i8, ptr %.061155, i64 2
  %39 = load i8, ptr %16, align 1, !tbaa !46
  %40 = icmp eq i8 %39, 0
  %narrow119 = tail call i8 @llvm.umin.i8(i8 %39, i8 -2)
  %narrow120 = select i1 %40, i8 1, i8 %narrow119
  %.0.i73 = zext i8 %narrow120 to i32
  %41 = shl nuw nsw i32 %.0.i73, 2
  %42 = getelementptr inbounds nuw i8, ptr %.058158, i64 4
  %43 = load i8, ptr %31, align 1, !tbaa !46
  %44 = icmp eq i8 %43, 0
  %narrow121 = tail call i8 @llvm.umin.i8(i8 %43, i8 -2)
  %narrow122 = select i1 %44, i8 1, i8 %narrow121
  %.0.i75 = zext i8 %narrow122 to i32
  %45 = shl nuw nsw i32 %.0.i75, 12
  %46 = getelementptr inbounds nuw i8, ptr %.059157, i64 3
  %47 = load i8, ptr %27, align 1, !tbaa !46
  %48 = icmp eq i8 %47, 0
  %narrow123 = tail call i8 @llvm.umin.i8(i8 %47, i8 -2)
  %narrow124 = select i1 %48, i8 1, i8 %narrow123
  %.0.i77 = zext i8 %narrow124 to i32
  %49 = shl nuw nsw i32 %.0.i77, 22
  %50 = or disjoint i32 %49, %45
  %51 = or disjoint i32 %50, %41
  store i32 %51, ptr %37, align 1, !tbaa !46
  %52 = getelementptr inbounds nuw i8, ptr %.060156, i64 12
  %53 = getelementptr inbounds nuw i8, ptr %.058158, i64 5
  %54 = load i8, ptr %42, align 1, !tbaa !46
  %55 = icmp eq i8 %54, 0
  %narrow125 = tail call i8 @llvm.umin.i8(i8 %54, i8 -2)
  %narrow126 = select i1 %55, i8 1, i8 %narrow125
  %.0.i79 = zext i8 %narrow126 to i32
  %56 = shl nuw nsw i32 %.0.i79, 2
  %57 = getelementptr inbounds nuw i8, ptr %.061155, i64 3
  %58 = load i8, ptr %38, align 1, !tbaa !46
  %59 = icmp eq i8 %58, 0
  %narrow127 = tail call i8 @llvm.umin.i8(i8 %58, i8 -2)
  %narrow128 = select i1 %59, i8 1, i8 %narrow127
  %.0.i81 = zext i8 %narrow128 to i32
  %60 = shl nuw nsw i32 %.0.i81, 12
  %61 = getelementptr inbounds nuw i8, ptr %.058158, i64 6
  %62 = load i8, ptr %53, align 1, !tbaa !46
  %63 = icmp eq i8 %62, 0
  %narrow129 = tail call i8 @llvm.umin.i8(i8 %62, i8 -2)
  %narrow130 = select i1 %63, i8 1, i8 %narrow129
  %.0.i83 = zext i8 %narrow130 to i32
  %64 = shl nuw nsw i32 %.0.i83, 22
  %65 = or disjoint i32 %64, %60
  %66 = or disjoint i32 %65, %56
  store i32 %66, ptr %52, align 1, !tbaa !46
  %67 = getelementptr inbounds nuw i8, ptr %.060156, i64 16
  %68 = getelementptr inbounds nuw i8, ptr %.059157, i64 4
  %69 = load i8, ptr %46, align 1, !tbaa !46
  %70 = icmp eq i8 %69, 0
  %narrow131 = tail call i8 @llvm.umin.i8(i8 %69, i8 -2)
  %narrow132 = select i1 %70, i8 1, i8 %narrow131
  %.0.i85 = zext i8 %narrow132 to i32
  %71 = shl nuw nsw i32 %.0.i85, 2
  %72 = getelementptr inbounds nuw i8, ptr %.058158, i64 7
  %73 = load i8, ptr %61, align 1, !tbaa !46
  %74 = icmp eq i8 %73, 0
  %narrow133 = tail call i8 @llvm.umin.i8(i8 %73, i8 -2)
  %narrow134 = select i1 %74, i8 1, i8 %narrow133
  %.0.i87 = zext i8 %narrow134 to i32
  %75 = shl nuw nsw i32 %.0.i87, 12
  %76 = getelementptr inbounds nuw i8, ptr %.061155, i64 4
  %77 = load i8, ptr %57, align 1, !tbaa !46
  %78 = icmp eq i8 %77, 0
  %narrow135 = tail call i8 @llvm.umin.i8(i8 %77, i8 -2)
  %narrow136 = select i1 %78, i8 1, i8 %narrow135
  %.0.i89 = zext i8 %narrow136 to i32
  %79 = shl nuw nsw i32 %.0.i89, 22
  %80 = or disjoint i32 %79, %75
  %81 = or disjoint i32 %80, %71
  store i32 %81, ptr %67, align 1, !tbaa !46
  %82 = getelementptr inbounds nuw i8, ptr %.060156, i64 20
  %83 = getelementptr inbounds nuw i8, ptr %.058158, i64 8
  %84 = load i8, ptr %72, align 1, !tbaa !46
  %85 = icmp eq i8 %84, 0
  %narrow137 = tail call i8 @llvm.umin.i8(i8 %84, i8 -2)
  %narrow138 = select i1 %85, i8 1, i8 %narrow137
  %.0.i91 = zext i8 %narrow138 to i32
  %86 = shl nuw nsw i32 %.0.i91, 2
  %87 = getelementptr inbounds nuw i8, ptr %.059157, i64 5
  %88 = load i8, ptr %68, align 1, !tbaa !46
  %89 = icmp eq i8 %88, 0
  %narrow139 = tail call i8 @llvm.umin.i8(i8 %88, i8 -2)
  %narrow140 = select i1 %89, i8 1, i8 %narrow139
  %.0.i93 = zext i8 %narrow140 to i32
  %90 = shl nuw nsw i32 %.0.i93, 12
  %91 = getelementptr inbounds nuw i8, ptr %.058158, i64 9
  %92 = load i8, ptr %83, align 1, !tbaa !46
  %93 = icmp eq i8 %92, 0
  %narrow141 = tail call i8 @llvm.umin.i8(i8 %92, i8 -2)
  %narrow142 = select i1 %93, i8 1, i8 %narrow141
  %.0.i95 = zext i8 %narrow142 to i32
  %94 = shl nuw nsw i32 %.0.i95, 22
  %95 = or disjoint i32 %94, %90
  %96 = or disjoint i32 %95, %86
  store i32 %96, ptr %82, align 1, !tbaa !46
  %97 = getelementptr inbounds nuw i8, ptr %.060156, i64 24
  %98 = getelementptr inbounds nuw i8, ptr %.061155, i64 5
  %99 = load i8, ptr %76, align 1, !tbaa !46
  %100 = icmp eq i8 %99, 0
  %narrow143 = tail call i8 @llvm.umin.i8(i8 %99, i8 -2)
  %narrow144 = select i1 %100, i8 1, i8 %narrow143
  %.0.i97 = zext i8 %narrow144 to i32
  %101 = shl nuw nsw i32 %.0.i97, 2
  %102 = getelementptr inbounds nuw i8, ptr %.058158, i64 10
  %103 = load i8, ptr %91, align 1, !tbaa !46
  %104 = icmp eq i8 %103, 0
  %narrow145 = tail call i8 @llvm.umin.i8(i8 %103, i8 -2)
  %narrow146 = select i1 %104, i8 1, i8 %narrow145
  %.0.i99 = zext i8 %narrow146 to i32
  %105 = shl nuw nsw i32 %.0.i99, 12
  %106 = getelementptr inbounds nuw i8, ptr %.059157, i64 6
  %107 = load i8, ptr %87, align 1, !tbaa !46
  %108 = icmp eq i8 %107, 0
  %narrow147 = tail call i8 @llvm.umin.i8(i8 %107, i8 -2)
  %narrow148 = select i1 %108, i8 1, i8 %narrow147
  %.0.i101 = zext i8 %narrow148 to i32
  %109 = shl nuw nsw i32 %.0.i101, 22
  %110 = or disjoint i32 %109, %105
  %111 = or disjoint i32 %110, %101
  store i32 %111, ptr %97, align 1, !tbaa !46
  %112 = getelementptr inbounds nuw i8, ptr %.060156, i64 28
  %113 = getelementptr inbounds nuw i8, ptr %.058158, i64 11
  %114 = load i8, ptr %102, align 1, !tbaa !46
  %115 = icmp eq i8 %114, 0
  %narrow149 = tail call i8 @llvm.umin.i8(i8 %114, i8 -2)
  %narrow150 = select i1 %115, i8 1, i8 %narrow149
  %.0.i103 = zext i8 %narrow150 to i32
  %116 = shl nuw nsw i32 %.0.i103, 2
  %117 = getelementptr inbounds nuw i8, ptr %.061155, i64 6
  %118 = load i8, ptr %98, align 1, !tbaa !46
  %119 = icmp eq i8 %118, 0
  %narrow151 = tail call i8 @llvm.umin.i8(i8 %118, i8 -2)
  %narrow152 = select i1 %119, i8 1, i8 %narrow151
  %.0.i105 = zext i8 %narrow152 to i32
  %120 = shl nuw nsw i32 %.0.i105, 12
  %121 = getelementptr inbounds nuw i8, ptr %.058158, i64 12
  %122 = load i8, ptr %113, align 1, !tbaa !46
  %123 = icmp eq i8 %122, 0
  %narrow153 = tail call i8 @llvm.umin.i8(i8 %122, i8 -2)
  %narrow154 = select i1 %123, i8 1, i8 %narrow153
  %.0.i107 = zext i8 %narrow154 to i32
  %124 = shl nuw nsw i32 %.0.i107, 22
  %125 = or disjoint i32 %124, %120
  %126 = or disjoint i32 %125, %116
  store i32 %126, ptr %112, align 1, !tbaa !46
  %127 = getelementptr inbounds nuw i8, ptr %.060156, i64 32
  %indvars.iv.next = add nuw nsw i64 %indvars.iv, 12
  %128 = icmp sgt i64 %6, %indvars.iv.next
  br i1 %128, label %.lr.ph, label %._crit_edge, !llvm.loop !56
}